target datalayout = "e-m:e-p270:32:32-p271:32:32-p272:64:64-i64:64-i128:128-f80:128-n8:16:32:64-S128"
target triple = "x86_64-pc-linux-gnu"

%struct._MRIStepInnerStepper = type { ptr, ptr, ptr, ptr, i32, i32, i32, double, double, ptr, ptr, i64, i64, i64, i64 }
%struct.SUNStepper_ = type { ptr, ptr, ptr, i32 }

; Function Attrs: nounwind uwtable
define i32 @mriStepInnerStepper_EvolveSUNStepper(ptr noundef %0, double noundef %1, double noundef %2, ptr noundef %3) #0 {
  %5 = alloca i32, align 4
  %6 = alloca ptr, align 8
  %7 = alloca double, align 8
  %8 = alloca double, align 8
  %9 = alloca ptr, align 8
  %10 = alloca ptr, align 8
  %11 = alloca double, align 8
  %12 = alloca i32, align 4
  %13 = alloca i32, align 4
  store ptr %0, ptr %6, align 8, !tbaa !11
  store double %1, ptr %7, align 8, !tbaa !7
  store double %2, ptr %8, align 8, !tbaa !7
  store ptr %3, ptr %9, align 8, !tbaa !9
  call void @llvm.lifetime.start.p0(i64 8, ptr %10) #8
  %14 = load ptr, ptr %6, align 8, !tbaa !11
  %15 = getelementptr inbounds nuw %struct._MRIStepInnerStepper, ptr %14, i32 0, i32 0
  %16 = load ptr, ptr %15, align 8, !tbaa !263
  store ptr %16, ptr %10, align 8, !tbaa !258
  call void @llvm.lifetime.start.p0(i64 8, ptr %11) #8
  call void @llvm.lifetime.start.p0(i64 4, ptr %12) #8
  %17 = load ptr, ptr %10, align 8, !tbaa !258
  %18 = load ptr, ptr %6, align 8, !tbaa !11
  %19 = getelementptr inbounds nuw %struct._MRIStepInnerStepper, ptr %18, i32 0, i32 7
  %20 = load double, ptr %19, align 8, !tbaa !247
  %21 = load ptr, ptr %6, align 8, !tbaa !11
  %22 = getelementptr inbounds nuw %struct._MRIStepInnerStepper, ptr %21, i32 0, i32 8
  %23 = load double, ptr %22, align 8, !tbaa !248
  %24 = load ptr, ptr %6, align 8, !tbaa !11
  %25 = getelementptr inbounds nuw %struct._MRIStepInnerStepper, ptr %24, i32 0, i32 3
  %26 = load ptr, ptr %25, align 8, !tbaa !249
  %27 = load ptr, ptr %6, align 8, !tbaa !11
  %28 = getelementptr inbounds nuw %struct._MRIStepInnerStepper, ptr %27, i32 0, i32 4
  %29 = load i32, ptr %28, align 8, !tbaa !230
  %30 = call i32 @SUNStepper_SetForcing(ptr noundef %17, double noundef %20, double noundef %23, ptr noundef %26, i32 noundef %29)
  store i32 %30, ptr %12, align 4, !tbaa !15
  %31 = load ptr, ptr %10, align 8, !tbaa !258
  %32 = getelementptr inbounds nuw %struct.SUNStepper_, ptr %31, i32 0, i32 3
  %33 = load i32, ptr %32, align 8, !tbaa !264
  %34 = load ptr, ptr %6, align 8, !tbaa !11
  %35 = getelementptr inbounds nuw %struct._MRIStepInnerStepper, ptr %34, i32 0, i32 6
  store i32 %33, ptr %35, align 8, !tbaa !229
  %36 = load i32, ptr %12, align 4, !tbaa !15
  %37 = icmp ne i32 %36, 0
  br i1 %37, label %38, label %39

38:                                               ; preds = %4
  store i32 -51, ptr %5, align 4
  store i32 1, ptr %13, align 4
  br label %76

39:                                               ; preds = %4
  %40 = load ptr, ptr %10, align 8, !tbaa !258
  %41 = load double, ptr %8, align 8, !tbaa !7
  %42 = call i32 @SUNStepper_SetStopTime(ptr noundef %40, double noundef %41)
  store i32 %42, ptr %12, align 4, !tbaa !15
  %43 = load ptr, ptr %10, align 8, !tbaa !258
  %44 = getelementptr inbounds nuw %struct.SUNStepper_, ptr %43, i32 0, i32 3
  %45 = load i32, ptr %44, align 8, !tbaa !264
  %46 = load ptr, ptr %6, align 8, !tbaa !11
  %47 = getelementptr inbounds nuw %struct._MRIStepInnerStepper, ptr %46, i32 0, i32 6
  store i32 %45, ptr %47, align 8, !tbaa !229
  %48 = load i32, ptr %12, align 4, !tbaa !15
  %49 = icmp ne i32 %48, 0
  br i1 %49, label %50, label %51

50:                                               ; preds = %39
  store i32 -51, ptr %5, align 4
  store i32 1, ptr %13, align 4
  br label %76

51:                                               ; preds = %39
  %52 = load ptr, ptr %10, align 8, !tbaa !258
  %53 = load double, ptr %8, align 8, !tbaa !7
  %54 = load ptr, ptr %9, align 8, !tbaa !9
  %55 = call i32 @SUNStepper_Evolve(ptr noundef %52, double noundef %53, ptr noundef %54, ptr noundef %11)
  store i32 %55, ptr %12, align 4, !tbaa !15
  %56 = load ptr, ptr %10, align 8, !tbaa !258
  %57 = getelementptr inbounds nuw %struct.SUNStepper_, ptr %56, i32 0, i32 3
  %58 = load i32, ptr %57, align 8, !tbaa !264
  %59 = load ptr, ptr %6, align 8, !tbaa !11
  %60 = getelementptr inbounds nuw %struct._MRIStepInnerStepper, ptr %59, i32 0, i32 6
  store i32 %58, ptr %60, align 8, !tbaa !229
  %61 = load i32, ptr %12, align 4, !tbaa !15
  %62 = icmp ne i32 %61, 0
  br i1 %62, label %63, label %64

63:                                               ; preds = %51
  store i32 -51, ptr %5, align 4
  store i32 1, ptr %13, align 4
  br label %76

64:                                               ; preds = %51
  %65 = load ptr, ptr %10, align 8, !tbaa !258
  %66 = call i32 @SUNStepper_SetForcing(ptr noundef %65, double noundef 0.000000e+00, double noundef 1.000000e+00, ptr noundef null, i32 noundef 0)
  store i32 %66, ptr %12, align 4, !tbaa !15
  %67 = load ptr, ptr %10, align 8, !tbaa !258
  %68 = getelementptr inbounds nuw %struct.SUNStepper_, ptr %67, i32 0, i32 3
  %69 = load i32, ptr %68, align 8, !tbaa !264
  %70 = load ptr, ptr %6, align 8, !tbaa !11
  %71 = getelementptr inbounds nuw %struct._MRIStepInnerStepper, ptr %70, i32 0, i32 6
  store i32 %69, ptr %71, align 8, !tbaa !229
  %72 = load i32, ptr %12, align 4, !tbaa !15
  %73 = icmp ne i32 %72, 0
  br i1 %73, label %74, label %75

74:                                               ; preds = %64
  store i32 -51, ptr %5, align 4
  store i32 1, ptr %13, align 4
  br label %76

75:                                               ; preds = %64
  store i32 0, ptr %5, align 4
  store i32 1, ptr %13, align 4
  br label %76

76:                                               ; preds = %75, %74, %63, %50, %38
  call void @llvm.lifetime.end.p0(i64 4, ptr %12) #8
  call void @llvm.lifetime.end.p0(i64 8, ptr %11) #8
  call void @llvm.lifetime.end.p0(i64 8, ptr %10) #8
  %77 = load i32, ptr %5, align 4
  ret i32 %77
}