; Function Attrs: nounwind uwtable
define range(i32 -51, 1) i32 @mriStepInnerStepper_EvolveSUNStepper(ptr noundef captures(none) initializes((40, 44)) %0, double %1, double noundef %2, ptr noundef %3) #0 {
  %5 = alloca double, align 8
  %6 = load ptr, ptr %0, align 8, !tbaa !245
  call void @llvm.lifetime.start.p0(i64 8, ptr nonnull %5) #14
  %7 = getelementptr inbounds nuw i8, ptr %0, i64 48
  %8 = load double, ptr %7, align 8, !tbaa !231
  %9 = getelementptr inbounds nuw i8, ptr %0, i64 56
  %10 = load double, ptr %9, align 8, !tbaa !232
  %11 = getelementptr inbounds nuw i8, ptr %0, i64 24
  %12 = load ptr, ptr %11, align 8, !tbaa !233
  %13 = getelementptr inbounds nuw i8, ptr %0, i64 32
  %14 = load i32, ptr %13, align 8, !tbaa !213
  %15 = tail call i32 @SUNStepper_SetForcing(ptr noundef %6, double noundef %8, double noundef %10, ptr noundef %12, i32 noundef %14) #14
  %16 = getelementptr inbounds nuw i8, ptr %6, i64 24
  %17 = load i32, ptr %16, align 8, !tbaa !246
  %18 = getelementptr inbounds nuw i8, ptr %0, i64 40
  store i32 %17, ptr %18, align 8, !tbaa !166
  %.not = icmp eq i32 %15, 0
  br i1 %.not, label %19, label %28

19:                                               ; preds = %4
  %20 = tail call i32 @SUNStepper_SetStopTime(ptr noundef nonnull %6, double noundef %2) #14
  %21 = load i32, ptr %16, align 8, !tbaa !246
  store i32 %21, ptr %18, align 8, !tbaa !166
  %.not24 = icmp eq i32 %20, 0
  br i1 %.not24, label %22, label %28

22:                                               ; preds = %19
  %23 = call i32 @SUNStepper_Evolve(ptr noundef nonnull %6, double noundef %2, ptr noundef %3, ptr noundef nonnull %5) #14
  %24 = load i32, ptr %16, align 8, !tbaa !246
  store i32 %24, ptr %18, align 8, !tbaa !166
  %.not25 = icmp eq i32 %23, 0
  br i1 %.not25, label %25, label %28

25:                                               ; preds = %22
  %26 = call i32 @SUNStepper_SetForcing(ptr noundef nonnull %6, double noundef 0.000000e+00, double noundef 1.000000e+00, ptr noundef null, i32 noundef 0) #14
  %27 = load i32, ptr %16, align 8, !tbaa !246
  store i32 %27, ptr %18, align 8, !tbaa !166
  %.not26 = icmp eq i32 %26, 0
  %. = select i1 %.not26, i32 0, i32 -51
  br label %28

28:                                               ; preds = %25, %22, %19, %4
  %.0 = phi i32 [ -51, %4 ], [ -51, %19 ], [ -51, %22 ], [ %., %25 ]
  call void @llvm.lifetime.end.p0(i64 8, ptr nonnull %5) #14
  ret i32 %.0
}